target datalayout = "e-m:e-p270:32:32-p271:32:32-p272:64:64-i64:64-i128:128-f80:128-n8:16:32:64-S128"
target triple = "x86_64-pc-linux-gnu"

%struct.MpegEncContext = type { ptr, i32, i32, i32, [12 x i32], i32, %struct.ScanTable, %struct.ScanTable, [64 x i8], [64 x i8], ptr, ptr, i32, i32, i32, i32, i32, i32, i32, i32, i32, i32, i32, i32, i32, i32, i32, i32, i32, i32, i32, i32, i64, i64, ptr, %struct.BufferPoolContext, i32, i32, %union.anon.0, i32, %struct.MPVWorkPicture, %struct.MPVWorkPicture, %struct.MPVWorkPicture, i32, [3 x i32], ptr, [3 x ptr], ptr, ptr, ptr, ptr, ptr, ptr, [3 x ptr], i32, ptr, ptr, ptr, ptr, %struct.ScratchpadContext, i32, i32, i32, i32, i32, i32, %struct.BlockDSPContext, %struct.H264ChromaContext, %struct.HpelDSPContext, %struct.IDCTDSPContext, %struct.QpelDSPContext, %struct.VideoDSPContext, %struct.H263DSPContext, ptr, [2 x [2 x ptr]], i32, i32, [2 x [4 x [2 x i32]]], [2 x [2 x i32]], [2 x [2 x [2 x i32]]], [2 x [64 x i16]], i32, i32, i32, i32, i32, [6 x i32], [6 x i32], [3 x ptr], ptr, [64 x i16], [64 x i16], [64 x i16], [64 x i16], i32, i32, %struct.GetBitContext, i32, i32, i32, i32, i32, i32, i32, i32, i32, i32, i32, i32, i32, i32, i32, i64, i64, i16, i16, i16, i16, i32, i32, i32, i32, i32, i32, i32, i32, i32, [3 x i32], i32, i32, i32, i32, i32, i32, %struct.GetBitContext, i32, [2 x [2 x i32]], i32, i32, i32, i32, i32, i32, i32, i32, i32, i32, i32, i32, i32, i32, [2 x i32], i32, i32, ptr, ptr, ptr, ptr, ptr, i32, i32, %struct.ERContext }
%struct.ScanTable = type { ptr, [64 x i8], [64 x i8] }
%struct.BufferPoolContext = type { ptr, ptr, ptr, ptr, ptr, i32, i32, i32 }
%union.anon.0 = type { [32 x ptr] }
%struct.MPVWorkPicture = type { [3 x ptr], [3 x i64], ptr, ptr, [2 x ptr], ptr, ptr, [2 x ptr], i32 }
%struct.ScratchpadContext = type { ptr, ptr, %union.anon.1, i32 }
%union.anon.1 = type { ptr }
%struct.BlockDSPContext = type { ptr, ptr, [2 x ptr] }
%struct.H264ChromaContext = type { [4 x ptr], [4 x ptr] }
%struct.HpelDSPContext = type { [4 x [4 x ptr]], [4 x [4 x ptr]], [4 x [4 x ptr]], [4 x ptr] }
%struct.IDCTDSPContext = type { ptr, ptr, ptr, ptr, ptr, ptr, [64 x i8], i32, i32 }
%struct.QpelDSPContext = type { [2 x [16 x ptr]], [2 x [16 x ptr]], [2 x [16 x ptr]] }
%struct.VideoDSPContext = type { ptr, ptr }
%struct.H263DSPContext = type { ptr, ptr }
%struct.GetBitContext = type { ptr, ptr, i32, i32, i32 }
%struct.ERContext = type { ptr, ptr, i32, ptr, i32, i32, i32, i64, i64, i32, i32, ptr, ptr, [3 x ptr], ptr, ptr, [2 x [4 x [2 x i32]]], %struct.ERPicture, %struct.ERPicture, %struct.ERPicture, [2 x ptr], [2 x ptr], i16, i16, i32, i32, ptr, ptr }
%struct.ERPicture = type { ptr, ptr, ptr, [2 x ptr], [2 x ptr], ptr, i32 }
%struct.AVCodecContext = type { ptr, i32, i32, ptr, i32, i32, ptr, ptr, ptr, i64, i32, i32, ptr, i32, %struct.AVRational, %struct.AVRational, %struct.AVRational, i32, i32, i32, i32, i32, %struct.AVRational, i32, i32, i32, i32, i32, i32, i32, i32, i32, i32, i32, ptr, ptr, i32, float, float, float, float, float, float, float, float, float, i32, i32, i32, i32, i32, i32, i32, i32, i32, i32, i32, i32, ptr, ptr, ptr, i32, i32, i32, i32, i32, i32, i32, i32, i32, i32, %struct.AVChannelLayout, i32, i32, i32, i32, i32, i32, i32, i32, ptr, i32, i32, i32, float, float, i32, i32, i32, i32, i32, ptr, i64, i64, float, float, i32, i32, ptr, ptr, i32, i32, i32, i32, i32, ptr, ptr, ptr, ptr, i32, i32, [8 x i64], i32, i32, i32, i32, i32, i32, i32, ptr, ptr, i32, i32, i32, i32, i32, i32, i32, i32, i32, i32, ptr, ptr, i32, i32, ptr, ptr, ptr, ptr, i32, i32, i64, i32, i32, i64, ptr, i64, ptr, i32, ptr, i32 }
%struct.AVRational = type { i32, i32 }
%struct.AVChannelLayout = type { i32, i32, %union.anon.2, ptr }
%union.anon.2 = type { i64 }
%struct.MPVUnquantDSPContext = type { ptr, ptr, ptr, ptr, ptr, ptr }

; Function Attrs: cold nounwind optsize uwtable
define internal void @init_unquantize(ptr noundef %0, ptr noundef %1) #4 {
  %3 = alloca ptr, align 8
  %4 = alloca ptr, align 8
  %5 = alloca %struct.MPVUnquantDSPContext, align 8
  store ptr %0, ptr %3, align 8, !tbaa !244
  store ptr %1, ptr %4, align 8, !tbaa !125
  call void @llvm.lifetime.start.p0(i64 48, ptr %5) #14
  %6 = load ptr, ptr %4, align 8, !tbaa !125
  %7 = getelementptr inbounds nuw %struct.AVCodecContext, ptr %6, i32 0, i32 10
  %8 = load i32, ptr %7, align 8, !tbaa !156
  %9 = and i32 %8, 8388608
  call void @ff_mpv_unquantize_init(ptr noundef %5, i32 noundef %9)
  %10 = load ptr, ptr %3, align 8, !tbaa !244
  %11 = getelementptr inbounds nuw %struct.MpegEncContext, ptr %10, i32 0, i32 123
  %12 = load i32, ptr %11, align 4, !tbaa !246
  %13 = icmp ne i32 %12, 0
  br i1 %13, label %19, label %14

14:                                               ; preds = %2
  %15 = load ptr, ptr %3, align 8, !tbaa !244
  %16 = getelementptr inbounds nuw %struct.MpegEncContext, ptr %15, i32 0, i32 19
  %17 = load i32, ptr %16, align 4, !tbaa !247
  %18 = icmp eq i32 %17, 2
  br i1 %18, label %19, label %28

19:                                               ; preds = %14, %2
  %20 = getelementptr inbounds nuw %struct.MPVUnquantDSPContext, ptr %5, i32 0, i32 2
  %21 = load ptr, ptr %20, align 8, !tbaa !248
  %22 = load ptr, ptr %3, align 8, !tbaa !244
  %23 = getelementptr inbounds nuw %struct.MpegEncContext, ptr %22, i32 0, i32 157
  store ptr %21, ptr %23, align 8, !tbaa !250
  %24 = getelementptr inbounds nuw %struct.MPVUnquantDSPContext, ptr %5, i32 0, i32 3
  %25 = load ptr, ptr %24, align 8, !tbaa !251
  %26 = load ptr, ptr %3, align 8, !tbaa !244
  %27 = getelementptr inbounds nuw %struct.MpegEncContext, ptr %26, i32 0, i32 158
  store ptr %25, ptr %27, align 8, !tbaa !252
  br label %57

28:                                               ; preds = %14
  %29 = load ptr, ptr %3, align 8, !tbaa !244
  %30 = getelementptr inbounds nuw %struct.MpegEncContext, ptr %29, i32 0, i32 14
  %31 = load i32, ptr %30, align 8, !tbaa !253
  %32 = icmp eq i32 %31, 2
  br i1 %32, label %38, label %33

33:                                               ; preds = %28
  %34 = load ptr, ptr %3, align 8, !tbaa !244
  %35 = getelementptr inbounds nuw %struct.MpegEncContext, ptr %34, i32 0, i32 14
  %36 = load i32, ptr %35, align 8, !tbaa !253
  %37 = icmp eq i32 %36, 1
  br i1 %37, label %38, label %47

38:                                               ; preds = %33, %28
  %39 = getelementptr inbounds nuw %struct.MPVUnquantDSPContext, ptr %5, i32 0, i32 4
  %40 = load ptr, ptr %39, align 8, !tbaa !254
  %41 = load ptr, ptr %3, align 8, !tbaa !244
  %42 = getelementptr inbounds nuw %struct.MpegEncContext, ptr %41, i32 0, i32 157
  store ptr %40, ptr %42, align 8, !tbaa !250
  %43 = getelementptr inbounds nuw %struct.MPVUnquantDSPContext, ptr %5, i32 0, i32 5
  %44 = load ptr, ptr %43, align 8, !tbaa !255
  %45 = load ptr, ptr %3, align 8, !tbaa !244
  %46 = getelementptr inbounds nuw %struct.MpegEncContext, ptr %45, i32 0, i32 158
  store ptr %44, ptr %46, align 8, !tbaa !252
  br label %56

47:                                               ; preds = %33
  %48 = getelementptr inbounds nuw %struct.MPVUnquantDSPContext, ptr %5, i32 0, i32 0
  %49 = load ptr, ptr %48, align 8, !tbaa !256
  %50 = load ptr, ptr %3, align 8, !tbaa !244
  %51 = getelementptr inbounds nuw %struct.MpegEncContext, ptr %50, i32 0, i32 157
  store ptr %49, ptr %51, align 8, !tbaa !250
  %52 = getelementptr inbounds nuw %struct.MPVUnquantDSPContext, ptr %5, i32 0, i32 1
  %53 = load ptr, ptr %52, align 8, !tbaa !257
  %54 = load ptr, ptr %3, align 8, !tbaa !244
  %55 = getelementptr inbounds nuw %struct.MpegEncContext, ptr %54, i32 0, i32 158
  store ptr %53, ptr %55, align 8, !tbaa !252
  br label %56

56:                                               ; preds = %47, %38
  br label %57

57:                                               ; preds = %56, %19
  call void @llvm.lifetime.end.p0(i64 48, ptr %5) #14
  ret void
}