; Function Attrs: cold nounwind optsize uwtable
define internal fastcc void @init_unquantize(ptr noundef captures(none) initializes((4312, 4328)) %0, i32 %.64.val) unnamed_addr #6 {
  %2 = alloca %struct.MPVUnquantDSPContext, align 8
  call void @llvm.lifetime.start.p0(i64 48, ptr nonnull %2) #16
  %3 = and i32 %.64.val, 8388608
  call void @ff_mpv_unquantize_init(ptr noundef nonnull %2, i32 noundef %3) #16
  %4 = getelementptr inbounds nuw i8, ptr %0, i64 4108
  %5 = load i32, ptr %4, align 4, !tbaa !226
  %.not = icmp eq i32 %5, 0
  %.sink.sroa.gep = getelementptr inbounds nuw i8, ptr %2, i64 40
  %.sink.sroa.gep5 = getelementptr inbounds nuw i8, ptr %2, i64 8
  %.sink.sroa.gep6 = getelementptr inbounds nuw i8, ptr %2, i64 24
  br i1 %.not, label %6, label %10

6:                                                ; preds = %1
  %7 = getelementptr inbounds nuw i8, ptr %0, i64 516
  %8 = load i32, ptr %7, align 4, !tbaa !227
  %9 = icmp eq i32 %8, 2
  br i1 %9, label %10, label %13

10:                                               ; preds = %6, %1
  %11 = getelementptr inbounds nuw i8, ptr %2, i64 16
  %12 = load ptr, ptr %11, align 8, !tbaa !228
  br label %21

13:                                               ; preds = %6
  %14 = getelementptr inbounds nuw i8, ptr %0, i64 496
  %15 = load i32, ptr %14, align 8, !tbaa !230
  %.off = add i32 %15, -1
  %switch = icmp ult i32 %.off, 2
  br i1 %switch, label %16, label %19

16:                                               ; preds = %13
  %17 = getelementptr inbounds nuw i8, ptr %2, i64 32
  %18 = load ptr, ptr %17, align 8, !tbaa !231
  br label %21

19:                                               ; preds = %13
  %20 = load ptr, ptr %2, align 8, !tbaa !232
  br label %21

21:                                               ; preds = %16, %19, %10
  %.sink3 = phi ptr [ %18, %16 ], [ %20, %19 ], [ %12, %10 ]
  %.sink.sroa.phi = phi ptr [ %.sink.sroa.gep, %16 ], [ %.sink.sroa.gep5, %19 ], [ %.sink.sroa.gep6, %10 ]
  %22 = getelementptr inbounds nuw i8, ptr %0, i64 4312
  store ptr %.sink3, ptr %22, align 8, !tbaa !233
  %23 = load ptr, ptr %.sink.sroa.phi, align 8, !tbaa !234
  %24 = getelementptr inbounds nuw i8, ptr %0, i64 4320
  store ptr %23, ptr %24, align 8, !tbaa !235
  call void @llvm.lifetime.end.p0(i64 48, ptr nonnull %2) #16
  ret void
}